target datalayout = "e-m:e-p270:32:32-p271:32:32-p272:64:64-i64:64-i128:128-f80:128-n8:16:32:64-S128"
target triple = "x86_64-pc-linux-gnu"

%struct.SDL_TimerData = type { %struct.SDL_InitState, ptr, ptr, ptr, [128 x i8], i32, ptr, ptr, ptr, %struct.SDL_AtomicInt, ptr }
%struct.SDL_InitState = type { %struct.SDL_AtomicInt, i64, ptr }
%struct.SDL_AtomicInt = type { i32 }
%struct.SDL_Timer = type { i32, ptr, ptr, ptr, i64, i64, %struct.SDL_AtomicInt, ptr }
%struct.SDL_TimerMap = type { i32, ptr, ptr }

@SDL_timer_data = internal global %struct.SDL_TimerData zeroinitializer, align 8

; Function Attrs: nounwind uwtable
define hidden void @SDL_QuitTimers() #0 {
  %1 = alloca ptr, align 8
  %2 = alloca ptr, align 8
  %3 = alloca ptr, align 8
  %4 = alloca i32, align 4
  call void @llvm.lifetime.start.p0(i64 8, ptr %1) #3
  store ptr @SDL_timer_data, ptr %1, align 8
  call void @llvm.lifetime.start.p0(i64 8, ptr %2) #3
  call void @llvm.lifetime.start.p0(i64 8, ptr %3) #3
  %5 = load ptr, ptr %1, align 8
  %6 = getelementptr inbounds nuw %struct.SDL_TimerData, ptr %5, i32 0, i32 0
  %7 = call zeroext i1 @SDL_ShouldQuit_REAL(ptr noundef %6)
  br i1 %7, label %9, label %8

8:                                                ; preds = %0
  store i32 1, ptr %4, align 4
  br label %99

9:                                                ; preds = %0
  %10 = load ptr, ptr %1, align 8
  %11 = getelementptr inbounds nuw %struct.SDL_TimerData, ptr %10, i32 0, i32 9
  %12 = call i32 @SDL_SetAtomicInt_REAL(ptr noundef %11, i32 noundef 0)
  %13 = load ptr, ptr %1, align 8
  %14 = getelementptr inbounds nuw %struct.SDL_TimerData, ptr %13, i32 0, i32 1
  %15 = load ptr, ptr %14, align 8
  %16 = icmp ne ptr %15, null
  br i1 %16, label %17, label %26

17:                                               ; preds = %9
  %18 = load ptr, ptr %1, align 8
  %19 = getelementptr inbounds nuw %struct.SDL_TimerData, ptr %18, i32 0, i32 6
  %20 = load ptr, ptr %19, align 8
  call void @SDL_SignalSemaphore_REAL(ptr noundef %20)
  %21 = load ptr, ptr %1, align 8
  %22 = getelementptr inbounds nuw %struct.SDL_TimerData, ptr %21, i32 0, i32 1
  %23 = load ptr, ptr %22, align 8
  call void @SDL_WaitThread_REAL(ptr noundef %23, ptr noundef null)
  %24 = load ptr, ptr %1, align 8
  %25 = getelementptr inbounds nuw %struct.SDL_TimerData, ptr %24, i32 0, i32 1
  store ptr null, ptr %25, align 8
  br label %26

26:                                               ; preds = %17, %9
  %27 = load ptr, ptr %1, align 8
  %28 = getelementptr inbounds nuw %struct.SDL_TimerData, ptr %27, i32 0, i32 6
  %29 = load ptr, ptr %28, align 8
  %30 = icmp ne ptr %29, null
  br i1 %30, label %31, label %37

31:                                               ; preds = %26
  %32 = load ptr, ptr %1, align 8
  %33 = getelementptr inbounds nuw %struct.SDL_TimerData, ptr %32, i32 0, i32 6
  %34 = load ptr, ptr %33, align 8
  call void @SDL_DestroySemaphore_REAL(ptr noundef %34)
  %35 = load ptr, ptr %1, align 8
  %36 = getelementptr inbounds nuw %struct.SDL_TimerData, ptr %35, i32 0, i32 6
  store ptr null, ptr %36, align 8
  br label %37

37:                                               ; preds = %31, %26
  br label %38

38:                                               ; preds = %43, %37
  %39 = load ptr, ptr %1, align 8
  %40 = getelementptr inbounds nuw %struct.SDL_TimerData, ptr %39, i32 0, i32 10
  %41 = load ptr, ptr %40, align 8
  %42 = icmp ne ptr %41, null
  br i1 %42, label %43, label %53

43:                                               ; preds = %38
  %44 = load ptr, ptr %1, align 8
  %45 = getelementptr inbounds nuw %struct.SDL_TimerData, ptr %44, i32 0, i32 10
  %46 = load ptr, ptr %45, align 8
  store ptr %46, ptr %2, align 8
  %47 = load ptr, ptr %2, align 8
  %48 = getelementptr inbounds nuw %struct.SDL_Timer, ptr %47, i32 0, i32 7
  %49 = load ptr, ptr %48, align 8
  %50 = load ptr, ptr %1, align 8
  %51 = getelementptr inbounds nuw %struct.SDL_TimerData, ptr %50, i32 0, i32 10
  store ptr %49, ptr %51, align 8
  %52 = load ptr, ptr %2, align 8
  call void @SDL_free_REAL(ptr noundef %52)
  br label %38, !llvm.loop !6

53:                                               ; preds = %38
  br label %54

54:                                               ; preds = %59, %53
  %55 = load ptr, ptr %1, align 8
  %56 = getelementptr inbounds nuw %struct.SDL_TimerData, ptr %55, i32 0, i32 8
  %57 = load ptr, ptr %56, align 8
  %58 = icmp ne ptr %57, null
  br i1 %58, label %59, label %69

59:                                               ; preds = %54
  %60 = load ptr, ptr %1, align 8
  %61 = getelementptr inbounds nuw %struct.SDL_TimerData, ptr %60, i32 0, i32 8
  %62 = load ptr, ptr %61, align 8
  store ptr %62, ptr %2, align 8
  %63 = load ptr, ptr %2, align 8
  %64 = getelementptr inbounds nuw %struct.SDL_Timer, ptr %63, i32 0, i32 7
  %65 = load ptr, ptr %64, align 8
  %66 = load ptr, ptr %1, align 8
  %67 = getelementptr inbounds nuw %struct.SDL_TimerData, ptr %66, i32 0, i32 8
  store ptr %65, ptr %67, align 8
  %68 = load ptr, ptr %2, align 8
  call void @SDL_free_REAL(ptr noundef %68)
  br label %54, !llvm.loop !7

69:                                               ; preds = %54
  br label %70

70:                                               ; preds = %75, %69
  %71 = load ptr, ptr %1, align 8
  %72 = getelementptr inbounds nuw %struct.SDL_TimerData, ptr %71, i32 0, i32 2
  %73 = load ptr, ptr %72, align 8
  %74 = icmp ne ptr %73, null
  br i1 %74, label %75, label %85

75:                                               ; preds = %70
  %76 = load ptr, ptr %1, align 8
  %77 = getelementptr inbounds nuw %struct.SDL_TimerData, ptr %76, i32 0, i32 2
  %78 = load ptr, ptr %77, align 8
  store ptr %78, ptr %3, align 8
  %79 = load ptr, ptr %3, align 8
  %80 = getelementptr inbounds nuw %struct.SDL_TimerMap, ptr %79, i32 0, i32 2
  %81 = load ptr, ptr %80, align 8
  %82 = load ptr, ptr %1, align 8
  %83 = getelementptr inbounds nuw %struct.SDL_TimerData, ptr %82, i32 0, i32 2
  store ptr %81, ptr %83, align 8
  %84 = load ptr, ptr %3, align 8
  call void @SDL_free_REAL(ptr noundef %84)
  br label %70, !llvm.loop !8

85:                                               ; preds = %70
  %86 = load ptr, ptr %1, align 8
  %87 = getelementptr inbounds nuw %struct.SDL_TimerData, ptr %86, i32 0, i32 3
  %88 = load ptr, ptr %87, align 8
  %89 = icmp ne ptr %88, null
  br i1 %89, label %90, label %96

90:                                               ; preds = %85
  %91 = load ptr, ptr %1, align 8
  %92 = getelementptr inbounds nuw %struct.SDL_TimerData, ptr %91, i32 0, i32 3
  %93 = load ptr, ptr %92, align 8
  call void @SDL_DestroyMutex_REAL(ptr noundef %93)
  %94 = load ptr, ptr %1, align 8
  %95 = getelementptr inbounds nuw %struct.SDL_TimerData, ptr %94, i32 0, i32 3
  store ptr null, ptr %95, align 8
  br label %96

96:                                               ; preds = %90, %85
  %97 = load ptr, ptr %1, align 8
  %98 = getelementptr inbounds nuw %struct.SDL_TimerData, ptr %97, i32 0, i32 0
  call void @SDL_SetInitialized_REAL(ptr noundef %98, i1 noundef zeroext false)
  store i32 0, ptr %4, align 4
  br label %99

99:                                               ; preds = %96, %8
  call void @llvm.lifetime.end.p0(i64 8, ptr %3) #3
  call void @llvm.lifetime.end.p0(i64 8, ptr %2) #3
  call void @llvm.lifetime.end.p0(i64 8, ptr %1) #3
  %100 = load i32, ptr %4, align 4
  switch i32 %100, label %102 [
    i32 0, label %101
    i32 1, label %101
  ]

101:                                              ; preds = %99, %99
  ret void

102:                                              ; preds = %99
  unreachable
}