; Function Attrs: nounwind uwtable
define hidden void @SDL_QuitTimers() local_unnamed_addr #0 {
  %1 = tail call zeroext i1 @SDL_ShouldQuit_REAL(ptr noundef nonnull @SDL_timer_data) #3
  br i1 %1, label %2, label %30

2:                                                ; preds = %0
  %3 = tail call i32 @SDL_SetAtomicInt_REAL(ptr noundef nonnull getelementptr inbounds nuw (i8, ptr @SDL_timer_data, i64 208), i32 noundef 0) #3
  %4 = load ptr, ptr getelementptr inbounds nuw (i8, ptr @SDL_timer_data, i64 24), align 8
  %.not = icmp eq ptr %4, null
  br i1 %.not, label %8, label %5

5:                                                ; preds = %2
  %6 = load ptr, ptr getelementptr inbounds nuw (i8, ptr @SDL_timer_data, i64 184), align 8
  tail call void @SDL_SignalSemaphore_REAL(ptr noundef %6) #3
  %7 = load ptr, ptr getelementptr inbounds nuw (i8, ptr @SDL_timer_data, i64 24), align 8
  tail call void @SDL_WaitThread_REAL(ptr noundef %7, ptr noundef null) #3
  store ptr null, ptr getelementptr inbounds nuw (i8, ptr @SDL_timer_data, i64 24), align 8
  br label %8

8:                                                ; preds = %5, %2
  %9 = load ptr, ptr getelementptr inbounds nuw (i8, ptr @SDL_timer_data, i64 184), align 8
  %.not32 = icmp eq ptr %9, null
  br i1 %.not32, label %11, label %10

10:                                               ; preds = %8
  tail call void @SDL_DestroySemaphore_REAL(ptr noundef nonnull %9) #3
  store ptr null, ptr getelementptr inbounds nuw (i8, ptr @SDL_timer_data, i64 184), align 8
  br label %11

11:                                               ; preds = %10, %8
  %12 = load ptr, ptr getelementptr inbounds nuw (i8, ptr @SDL_timer_data, i64 216), align 8
  %.not3338 = icmp eq ptr %12, null
  br i1 %.not3338, label %.preheader37, label %.lr.ph

.preheader37:                                     ; preds = %.lr.ph, %11
  %13 = load ptr, ptr getelementptr inbounds nuw (i8, ptr @SDL_timer_data, i64 200), align 8
  %.not3439 = icmp eq ptr %13, null
  br i1 %.not3439, label %.preheader, label %.lr.ph40

.lr.ph:                                           ; preds = %11, %.lr.ph
  %14 = phi ptr [ %17, %.lr.ph ], [ %12, %11 ]
  %15 = getelementptr inbounds nuw i8, ptr %14, i64 56
  %16 = load ptr, ptr %15, align 8
  store ptr %16, ptr getelementptr inbounds nuw (i8, ptr @SDL_timer_data, i64 216), align 8
  tail call void @SDL_free_REAL(ptr noundef nonnull %14) #3
  %17 = load ptr, ptr getelementptr inbounds nuw (i8, ptr @SDL_timer_data, i64 216), align 8
  %.not33 = icmp eq ptr %17, null
  br i1 %.not33, label %.preheader37, label %.lr.ph, !llvm.loop !7

.preheader:                                       ; preds = %.lr.ph40, %.preheader37
  %18 = load ptr, ptr getelementptr inbounds nuw (i8, ptr @SDL_timer_data, i64 32), align 8
  %.not3541 = icmp eq ptr %18, null
  br i1 %.not3541, label %._crit_edge, label %.lr.ph42

.lr.ph40:                                         ; preds = %.preheader37, %.lr.ph40
  %19 = phi ptr [ %22, %.lr.ph40 ], [ %13, %.preheader37 ]
  %20 = getelementptr inbounds nuw i8, ptr %19, i64 56
  %21 = load ptr, ptr %20, align 8
  store ptr %21, ptr getelementptr inbounds nuw (i8, ptr @SDL_timer_data, i64 200), align 8
  tail call void @SDL_free_REAL(ptr noundef nonnull %19) #3
  %22 = load ptr, ptr getelementptr inbounds nuw (i8, ptr @SDL_timer_data, i64 200), align 8
  %.not34 = icmp eq ptr %22, null
  br i1 %.not34, label %.preheader, label %.lr.ph40, !llvm.loop !8

.lr.ph42:                                         ; preds = %.preheader, %.lr.ph42
  %23 = phi ptr [ %26, %.lr.ph42 ], [ %18, %.preheader ]
  %24 = getelementptr inbounds nuw i8, ptr %23, i64 16
  %25 = load ptr, ptr %24, align 8
  store ptr %25, ptr getelementptr inbounds nuw (i8, ptr @SDL_timer_data, i64 32), align 8
  tail call void @SDL_free_REAL(ptr noundef nonnull %23) #3
  %26 = load ptr, ptr getelementptr inbounds nuw (i8, ptr @SDL_timer_data, i64 32), align 8
  %.not35 = icmp eq ptr %26, null
  br i1 %.not35, label %._crit_edge, label %.lr.ph42, !llvm.loop !9

._crit_edge:                                      ; preds = %.lr.ph42, %.preheader
  %27 = load ptr, ptr getelementptr inbounds nuw (i8, ptr @SDL_timer_data, i64 40), align 8
  %.not36 = icmp eq ptr %27, null
  br i1 %.not36, label %29, label %28

28:                                               ; preds = %._crit_edge
  tail call void @SDL_DestroyMutex_REAL(ptr noundef nonnull %27) #3
  store ptr null, ptr getelementptr inbounds nuw (i8, ptr @SDL_timer_data, i64 40), align 8
  br label %29

29:                                               ; preds = %28, %._crit_edge
  tail call void @SDL_SetInitialized_REAL(ptr noundef nonnull @SDL_timer_data, i1 noundef zeroext false) #3
  br label %30

30:                                               ; preds = %0, %29
  ret void
}